target datalayout = "e-m:e-p270:32:32-p271:32:32-p272:64:64-i64:64-i128:128-f80:128-n8:16:32:64-S128"
target triple = "x86_64-pc-linux-gnu"

%struct.test_fixture = type { ptr, i32, ptr, ptr }
%struct.ossl_cmp_pkiheader_st = type { ptr, ptr, ptr, ptr, ptr, ptr, ptr, ptr, ptr, ptr, ptr, ptr }

@.str.8 = private unnamed_addr constant [32 x i8] c"test_HDR_generalInfo_push0_item\00", align 1
@.str.13 = private unnamed_addr constant [31 x i8] c"../openssl/test/cmp_hdr_test.c\00", align 1
@.str.18 = private unnamed_addr constant [2 x i8] c"1\00", align 1
@.str.52 = private unnamed_addr constant [5 x i8] c"itav\00", align 1
@.str.53 = private unnamed_addr constant [56 x i8] c"ossl_cmp_hdr_generalInfo_push0_item(fixture->hdr, itav)\00", align 1
@.str.54 = private unnamed_addr constant [61 x i8] c"itav == sk_OSSL_CMP_ITAV_value(fixture->hdr->generalInfo, 0)\00", align 1

; Function Attrs: inlinehint nounwind uwtable
define internal ptr @ossl_check_const_OSSL_CMP_ITAV_sk_type(ptr noundef %0) #5 {
  %2 = alloca ptr, align 8
  store ptr %0, ptr %2, align 8, !tbaa !57
  %3 = load ptr, ptr %2, align 8, !tbaa !57
  ret ptr %3
}

; Function Attrs: nounwind uwtable
define internal void @tear_down(ptr noundef %0) #0 {
  %2 = alloca ptr, align 8
  store ptr %0, ptr %2, align 8, !tbaa !4
  %3 = load ptr, ptr %2, align 8, !tbaa !4
  %4 = getelementptr inbounds nuw %struct.test_fixture, ptr %3, i32 0, i32 3
  %5 = load ptr, ptr %4, align 8, !tbaa !21
  call void @OSSL_CMP_PKIHEADER_free(ptr noundef %5)
  %6 = load ptr, ptr %2, align 8, !tbaa !4
  %7 = getelementptr inbounds nuw %struct.test_fixture, ptr %6, i32 0, i32 2
  %8 = load ptr, ptr %7, align 8, !tbaa !16
  call void @OSSL_CMP_CTX_free(ptr noundef %8)
  %9 = load ptr, ptr %2, align 8, !tbaa !4
  call void @CRYPTO_free(ptr noundef %9, ptr noundef @.str.13, i32 noundef 28)
  ret void
}

; Function Attrs: nounwind uwtable
define internal i32 @execute_HDR_generalInfo_push0_item_test(ptr noundef %0) #0 {
  %2 = alloca i32, align 4
  %3 = alloca ptr, align 8
  %4 = alloca ptr, align 8
  %5 = alloca i32, align 4
  store ptr %0, ptr %3, align 8, !tbaa !4
  call void @llvm.lifetime.start.p0(i64 8, ptr %4) #7
  %6 = call ptr @OSSL_CMP_ITAV_new()
  store ptr %6, ptr %4, align 8, !tbaa !54
  %7 = load ptr, ptr %4, align 8, !tbaa !54
  %8 = call i32 @test_ptr(ptr noundef @.str.13, i32 noundef 314, ptr noundef @.str.52, ptr noundef %7)
  %9 = icmp ne i32 %8, 0
  br i1 %9, label %11, label %10

10:                                               ; preds = %1
  store i32 0, ptr %2, align 4
  store i32 1, ptr %5, align 4
  br label %37

11:                                               ; preds = %1
  %12 = load ptr, ptr %3, align 8, !tbaa !4
  %13 = getelementptr inbounds nuw %struct.test_fixture, ptr %12, i32 0, i32 3
  %14 = load ptr, ptr %13, align 8, !tbaa !21
  %15 = load ptr, ptr %4, align 8, !tbaa !54
  %16 = call i32 @ossl_cmp_hdr_generalInfo_push0_item(ptr noundef %14, ptr noundef %15)
  %17 = call i32 @test_int_eq(ptr noundef @.str.13, i32 noundef 318, ptr noundef @.str.53, ptr noundef @.str.18, i32 noundef %16, i32 noundef 1)
  %18 = icmp ne i32 %17, 0
  br i1 %18, label %20, label %19

19:                                               ; preds = %11
  store i32 0, ptr %2, align 4
  store i32 1, ptr %5, align 4
  br label %37

20:                                               ; preds = %11
  %21 = load ptr, ptr %4, align 8, !tbaa !54
  %22 = load ptr, ptr %3, align 8, !tbaa !4
  %23 = getelementptr inbounds nuw %struct.test_fixture, ptr %22, i32 0, i32 3
  %24 = load ptr, ptr %23, align 8, !tbaa !21
  %25 = getelementptr inbounds nuw %struct.ossl_cmp_pkiheader_st, ptr %24, i32 0, i32 11
  %26 = load ptr, ptr %25, align 8, !tbaa !56
  %27 = call ptr @ossl_check_const_OSSL_CMP_ITAV_sk_type(ptr noundef %26)
  %28 = call ptr @OPENSSL_sk_value(ptr noundef %27, i32 noundef 0)
  %29 = icmp eq ptr %21, %28
  %30 = zext i1 %29 to i32
  %31 = icmp ne i32 %30, 0
  %32 = zext i1 %31 to i32
  %33 = call i32 @test_true(ptr noundef @.str.13, i32 noundef 322, ptr noundef @.str.54, i32 noundef %32)
  %34 = icmp ne i32 %33, 0
  br i1 %34, label %36, label %35

35:                                               ; preds = %20
  store i32 0, ptr %2, align 4
  store i32 1, ptr %5, align 4
  br label %37

36:                                               ; preds = %20
  store i32 1, ptr %2, align 4
  store i32 1, ptr %5, align 4
  br label %37

37:                                               ; preds = %36, %35, %19, %10
  call void @llvm.lifetime.end.p0(i64 8, ptr %4) #7
  %38 = load i32, ptr %2, align 4
  ret i32 %38
}

; Function Attrs: nounwind uwtable
define internal i32 @test_HDR_generalInfo_push0_item() #0 {
  %1 = alloca i32, align 4
  %2 = alloca ptr, align 8
  %3 = alloca i32, align 4
  %4 = alloca i32, align 4
  call void @llvm.lifetime.start.p0(i64 8, ptr %2) #7
  %5 = call ptr @set_up(ptr noundef @.str.8)
  store ptr %5, ptr %2, align 8, !tbaa !4
  call void @llvm.lifetime.start.p0(i64 4, ptr %3) #7
  store i32 0, ptr %3, align 4, !tbaa !9
  %6 = load ptr, ptr %2, align 8, !tbaa !4
  %7 = icmp eq ptr %6, null
  br i1 %7, label %8, label %9

8:                                                ; preds = %0
  store i32 0, ptr %1, align 4
  store i32 1, ptr %4, align 4
  br label %20

9:                                                ; preds = %0
  %10 = load ptr, ptr %2, align 8, !tbaa !4
  %11 = getelementptr inbounds nuw %struct.test_fixture, ptr %10, i32 0, i32 1
  store i32 1, ptr %11, align 8, !tbaa !11
  %12 = load ptr, ptr %2, align 8, !tbaa !4
  %13 = icmp ne ptr %12, null
  br i1 %13, label %14, label %18

14:                                               ; preds = %9
  %15 = load ptr, ptr %2, align 8, !tbaa !4
  %16 = call i32 @execute_HDR_generalInfo_push0_item_test(ptr noundef %15)
  store i32 %16, ptr %3, align 4, !tbaa !9
  %17 = load ptr, ptr %2, align 8, !tbaa !4
  call void @tear_down(ptr noundef %17)
  br label %18

18:                                               ; preds = %14, %9
  %19 = load i32, ptr %3, align 4, !tbaa !9
  store i32 %19, ptr %1, align 4
  store i32 1, ptr %4, align 4
  br label %20

20:                                               ; preds = %18, %8
  call void @llvm.lifetime.end.p0(i64 4, ptr %3) #7
  call void @llvm.lifetime.end.p0(i64 8, ptr %2) #7
  %21 = load i32, ptr %1, align 4
  ret i32 %21
}