; Function Attrs: nounwind uwtable
define internal range(i32 0, 2) i32 @test_HDR_generalInfo_push0_item() #1 {
  %1 = tail call fastcc ptr @set_up(ptr noundef nonnull @.str.8)
  %2 = icmp eq ptr %1, null
  br i1 %2, label %24, label %3

3:                                                ; preds = %0
  %4 = getelementptr inbounds nuw i8, ptr %1, i64 8
  store i32 1, ptr %4, align 8, !tbaa !4
  %5 = tail call ptr @OSSL_CMP_ITAV_new() #8
  %6 = tail call i32 @test_ptr(ptr noundef nonnull @.str.13, i32 noundef 314, ptr noundef nonnull @.str.52, ptr noundef %5) #8
  %.not.i = icmp eq i32 %6, 0
  br i1 %.not.i, label %execute_HDR_generalInfo_push0_item_test.exit, label %7

7:                                                ; preds = %3
  %8 = getelementptr inbounds nuw i8, ptr %1, i64 24
  %9 = load ptr, ptr %8, align 8, !tbaa !13
  %10 = tail call i32 @ossl_cmp_hdr_generalInfo_push0_item(ptr noundef %9, ptr noundef %5) #8
  %11 = tail call i32 @test_int_eq(ptr noundef nonnull @.str.13, i32 noundef 318, ptr noundef nonnull @.str.53, ptr noundef nonnull @.str.18, i32 noundef %10, i32 noundef 1) #8
  %.not5.i = icmp eq i32 %11, 0
  br i1 %.not5.i, label %execute_HDR_generalInfo_push0_item_test.exit, label %12

12:                                               ; preds = %7
  %13 = load ptr, ptr %8, align 8, !tbaa !13
  %14 = getelementptr inbounds nuw i8, ptr %13, i64 88
  %15 = load ptr, ptr %14, align 8, !tbaa !48
  %16 = tail call ptr @OPENSSL_sk_value(ptr noundef %15, i32 noundef 0) #8
  %17 = icmp eq ptr %5, %16
  %18 = zext i1 %17 to i32
  %19 = tail call i32 @test_true(ptr noundef nonnull @.str.13, i32 noundef 322, ptr noundef nonnull @.str.54, i32 noundef %18) #8
  %.not6.i = icmp ne i32 %19, 0
  %..i = zext i1 %.not6.i to i32
  br label %execute_HDR_generalInfo_push0_item_test.exit

execute_HDR_generalInfo_push0_item_test.exit:     ; preds = %3, %7, %12
  %.0.i = phi i32 [ 0, %3 ], [ 0, %7 ], [ %..i, %12 ]
  %20 = getelementptr inbounds nuw i8, ptr %1, i64 24
  %21 = load ptr, ptr %20, align 8, !tbaa !13
  tail call void @OSSL_CMP_PKIHEADER_free(ptr noundef %21) #8
  %22 = getelementptr inbounds nuw i8, ptr %1, i64 16
  %23 = load ptr, ptr %22, align 8, !tbaa !14
  tail call void @OSSL_CMP_CTX_free(ptr noundef %23) #8
  tail call void @CRYPTO_free(ptr noundef nonnull %1, ptr noundef nonnull @.str.13, i32 noundef 28) #8
  br label %24

24:                                               ; preds = %0, %execute_HDR_generalInfo_push0_item_test.exit
  %.06 = phi i32 [ %.0.i, %execute_HDR_generalInfo_push0_item_test.exit ], [ 0, %0 ]
  ret i32 %.06
}